; ModuleID = '11/966.cpp'
source_filename = "11/966.cpp"
target datalayout = "e-m:e-p270:32:32-p271:32:32-p272:64:64-i64:64-f80:128-n8:16:32:64-S128"
target triple = "x86_64-pc-linux-gnu"

%"class.std::ios_base::Init" = type { i8 }
%"class.std::basic_istream" = type { i32 (...)**, i64, %"class.std::basic_ios" }
%"class.std::basic_ios" = type { %"class.std::ios_base", %"class.std::basic_ostream"*, i8, i8, %"class.std::basic_streambuf"*, %"class.std::ctype"*, %"class.std::num_put"*, %"class.std::num_get"* }
%"class.std::ios_base" = type { i32 (...)**, i64, i64, i32, i32, i32, %"struct.std::ios_base::_Callback_list"*, %"struct.std::ios_base::_Words", [8 x %"struct.std::ios_base::_Words"], i32, %"struct.std::ios_base::_Words"*, %"class.std::locale" }
%"struct.std::ios_base::_Callback_list" = type { %"struct.std::ios_base::_Callback_list"*, void (i32, %"class.std::ios_base"*, i32)*, i32, i32 }
%"struct.std::ios_base::_Words" = type { i8*, i64 }
%"class.std::locale" = type { %"class.std::locale::_Impl"* }
%"class.std::locale::_Impl" = type { i32, %"class.std::locale::facet"**, i64, %"class.std::locale::facet"**, i8** }
%"class.std::locale::facet" = type <{ i32 (...)**, i32, [4 x i8] }>
%"class.std::basic_ostream" = type { i32 (...)**, %"class.std::basic_ios" }
%"class.std::basic_streambuf" = type { i32 (...)**, i8*, i8*, i8*, i8*, i8*, i8*, %"class.std::locale" }
%"class.std::ctype" = type <{ %"class.std::locale::facet.base", [4 x i8], %struct.__locale_struct*, i8, [7 x i8], i32*, i32*, i16*, i8, [256 x i8], [256 x i8], i8, [6 x i8] }>
%"class.std::locale::facet.base" = type <{ i32 (...)**, i32 }>
%struct.__locale_struct = type { [13 x %struct.__locale_data*], i16*, i32*, i32*, [13 x i8*] }
%struct.__locale_data = type opaque
%"class.std::num_put" = type { %"class.std::locale::facet.base", [4 x i8] }
%"class.std::num_get" = type { %"class.std::locale::facet.base", [4 x i8] }

@_ZStL8__ioinit = internal global %"class.std::ios_base::Init" zeroinitializer, align 1
@__dso_handle = external hidden global i8
@_ZSt3cin = external dso_local global %"class.std::basic_istream", align 8
@_ZSt4cout = external dso_local global %"class.std::basic_ostream", align 8
@llvm.global_ctors = appending global [1 x { i32, void ()*, i8* }] [{ i32, void ()*, i8* } { i32 65535, void ()* @_GLOBAL__sub_I_966.cpp, i8* null }]

; Function Attrs: noinline uwtable
define internal void @__cxx_global_var_init() #0 section ".text.startup" {
  call void @_ZNSt8ios_base4InitC1Ev(%"class.std::ios_base::Init"* @_ZStL8__ioinit)
  %1 = call i32 @__cxa_atexit(void (i8*)* bitcast (void (%"class.std::ios_base::Init"*)* @_ZNSt8ios_base4InitD1Ev to void (i8*)*), i8* getelementptr inbounds (%"class.std::ios_base::Init", %"class.std::ios_base::Init"* @_ZStL8__ioinit, i32 0, i32 0), i8* @__dso_handle) #3
  ret void
}

declare dso_local void @_ZNSt8ios_base4InitC1Ev(%"class.std::ios_base::Init"*) unnamed_addr #1

; Function Attrs: nounwind
declare dso_local void @_ZNSt8ios_base4InitD1Ev(%"class.std::ios_base::Init"*) unnamed_addr #2

; Function Attrs: nounwind
declare dso_local i32 @__cxa_atexit(void (i8*)*, i8*, i8*) #3

; Function Attrs: noinline nounwind uwtable
define dso_local i32 @_Z4pingi(i32 %0) #4 {
  %2 = alloca i32, align 4
  %3 = alloca i32, align 4
  store i32 %0, i32* %3, align 4
  %4 = load i32, i32* %3, align 4
  %5 = icmp eq i32 %4, 1
  br i1 %5, label %24, label %6

6:                                                ; preds = %1
  %7 = load i32, i32* %3, align 4
  %8 = icmp eq i32 %7, 3
  br i1 %8, label %24, label %9

9:                                                ; preds = %6
  %10 = load i32, i32* %3, align 4
  %11 = icmp eq i32 %10, 5
  br i1 %11, label %24, label %12

12:                                               ; preds = %9
  %13 = load i32, i32* %3, align 4
  %14 = icmp eq i32 %13, 7
  br i1 %14, label %24, label %15

15:                                               ; preds = %12
  %16 = load i32, i32* %3, align 4
  %17 = icmp eq i32 %16, 8
  br i1 %17, label %24, label %18

18:                                               ; preds = %15
  %19 = load i32, i32* %3, align 4
  %20 = icmp eq i32 %19, 10
  br i1 %20, label %24, label %21

21:                                               ; preds = %18
  %22 = load i32, i32* %3, align 4
  %23 = icmp eq i32 %22, 12
  br i1 %23, label %24, label %25

24:                                               ; preds = %21, %18, %15, %12, %9, %6, %1
  store i32 31, i32* %2, align 4
  br label %43

25:                                               ; preds = %21
  %26 = load i32, i32* %3, align 4
  %27 = icmp eq i32 %26, 2
  br i1 %27, label %28, label %29

28:                                               ; preds = %25
  store i32 28, i32* %2, align 4
  br label %43

29:                                               ; preds = %25
  %30 = load i32, i32* %3, align 4
  %31 = icmp eq i32 %30, 4
  br i1 %31, label %41, label %32

32:                                               ; preds = %29
  %33 = load i32, i32* %3, align 4
  %34 = icmp eq i32 %33, 6
  br i1 %34, label %41, label %35

35:                                               ; preds = %32
  %36 = load i32, i32* %3, align 4
  %37 = icmp eq i32 %36, 9
  br i1 %37, label %41, label %38

38:                                               ; preds = %35
  %39 = load i32, i32* %3, align 4
  %40 = icmp eq i32 %39, 11
  br i1 %40, label %41, label %42

41:                                               ; preds = %38, %35, %32, %29
  store i32 30, i32* %2, align 4
  br label %43

42:                                               ; preds = %38
  call void @llvm.trap()
  unreachable

43:                                               ; preds = %41, %28, %24
  %44 = load i32, i32* %2, align 4
  ret i32 %44
}

; Function Attrs: cold noreturn nounwind
declare void @llvm.trap() #5

; Function Attrs: noinline nounwind uwtable
define dso_local i32 @_Z3runi(i32 %0) #4 {
  %2 = alloca i32, align 4
  %3 = alloca i32, align 4
  store i32 %0, i32* %3, align 4
  %4 = load i32, i32* %3, align 4
  %5 = icmp eq i32 %4, 1
  br i1 %5, label %24, label %6

6:                                                ; preds = %1
  %7 = load i32, i32* %3, align 4
  %8 = icmp eq i32 %7, 3
  br i1 %8, label %24, label %9

9:                                                ; preds = %6
  %10 = load i32, i32* %3, align 4
  %11 = icmp eq i32 %10, 5
  br i1 %11, label %24, label %12

12:                                               ; preds = %9
  %13 = load i32, i32* %3, align 4
  %14 = icmp eq i32 %13, 7
  br i1 %14, label %24, label %15

15:                                               ; preds = %12
  %16 = load i32, i32* %3, align 4
  %17 = icmp eq i32 %16, 8
  br i1 %17, label %24, label %18

18:                                               ; preds = %15
  %19 = load i32, i32* %3, align 4
  %20 = icmp eq i32 %19, 10
  br i1 %20, label %24, label %21

21:                                               ; preds = %18
  %22 = load i32, i32* %3, align 4
  %23 = icmp eq i32 %22, 12
  br i1 %23, label %24, label %25

24:                                               ; preds = %21, %18, %15, %12, %9, %6, %1
  store i32 31, i32* %2, align 4
  br label %43

25:                                               ; preds = %21
  %26 = load i32, i32* %3, align 4
  %27 = icmp eq i32 %26, 2
  br i1 %27, label %28, label %29

28:                                               ; preds = %25
  store i32 29, i32* %2, align 4
  br label %43

29:                                               ; preds = %25
  %30 = load i32, i32* %3, align 4
  %31 = icmp eq i32 %30, 4
  br i1 %31, label %41, label %32

32:                                               ; preds = %29
  %33 = load i32, i32* %3, align 4
  %34 = icmp eq i32 %33, 6
  br i1 %34, label %41, label %35

35:                                               ; preds = %32
  %36 = load i32, i32* %3, align 4
  %37 = icmp eq i32 %36, 9
  br i1 %37, label %41, label %38

38:                                               ; preds = %35
  %39 = load i32, i32* %3, align 4
  %40 = icmp eq i32 %39, 11
  br i1 %40, label %41, label %42

41:                                               ; preds = %38, %35, %32, %29
  store i32 30, i32* %2, align 4
  br label %43

42:                                               ; preds = %38
  call void @llvm.trap()
  unreachable

43:                                               ; preds = %41, %28, %24
  %44 = load i32, i32* %2, align 4
  ret i32 %44
}

; Function Attrs: noinline norecurse uwtable
define dso_local i32 @main() #6 {
  %1 = alloca i32, align 4
  %2 = alloca i32, align 4
  %3 = alloca i32, align 4
  %4 = alloca i32, align 4
  %5 = alloca i32, align 4
  %6 = alloca i32, align 4
  store i32 0, i32* %1, align 4
  store i32 0, i32* %5, align 4
  %7 = call dereferenceable(280) %"class.std::basic_istream"* @_ZNSirsERi(%"class.std::basic_istream"* @_ZSt3cin, i32* dereferenceable(4) %2)
  %8 = call dereferenceable(280) %"class.std::basic_istream"* @_ZNSirsERi(%"class.std::basic_istream"* %7, i32* dereferenceable(4) %3)
  %9 = call dereferenceable(280) %"class.std::basic_istream"* @_ZNSirsERi(%"class.std::basic_istream"* %8, i32* dereferenceable(4) %4)
  %10 = load i32, i32* %2, align 4
  %11 = srem i32 %10, 400
  %12 = icmp eq i32 %11, 0
  br i1 %12, label %21, label %13

13:                                               ; preds = %0
  %14 = load i32, i32* %2, align 4
  %15 = srem i32 %14, 4
  %16 = icmp eq i32 %15, 0
  br i1 %16, label %17, label %40

17:                                               ; preds = %13
  %18 = load i32, i32* %2, align 4
  %19 = srem i32 %18, 100
  %20 = icmp ne i32 %19, 0
  br i1 %20, label %21, label %40

21:                                               ; preds = %17, %0
  store i32 1, i32* %6, align 4
  br label %22

22:                                               ; preds = %31, %21
  %23 = load i32, i32* %6, align 4
  %24 = load i32, i32* %3, align 4
  %25 = icmp slt i32 %23, %24
  br i1 %25, label %26, label %34

26:                                               ; preds = %22
  %27 = load i32, i32* %6, align 4
  %28 = call i32 @_Z3runi(i32 %27)
  %29 = load i32, i32* %5, align 4
  %30 = add nsw i32 %29, %28
  store i32 %30, i32* %5, align 4
  br label %31

31:                                               ; preds = %26
  %32 = load i32, i32* %6, align 4
  %33 = add nsw i32 %32, 1
  store i32 %33, i32* %6, align 4
  br label %22

34:                                               ; preds = %22
  %35 = load i32, i32* %4, align 4
  %36 = load i32, i32* %5, align 4
  %37 = add nsw i32 %36, %35
  store i32 %37, i32* %5, align 4
  %38 = load i32, i32* %5, align 4
  %39 = call dereferenceable(272) %"class.std::basic_ostream"* @_ZNSolsEi(%"class.std::basic_ostream"* @_ZSt4cout, i32 %38)
  br label %59

40:                                               ; preds = %17, %13
  store i32 1, i32* %6, align 4
  br label %41

41:                                               ; preds = %50, %40
  %42 = load i32, i32* %6, align 4
  %43 = load i32, i32* %3, align 4
  %44 = icmp slt i32 %42, %43
  br i1 %44, label %45, label %53

45:                                               ; preds = %41
  %46 = load i32, i32* %6, align 4
  %47 = call i32 @_Z4pingi(i32 %46)
  %48 = load i32, i32* %5, align 4
  %49 = add nsw i32 %48, %47
  store i32 %49, i32* %5, align 4
  br label %50

50:                                               ; preds = %45
  %51 = load i32, i32* %6, align 4
  %52 = add nsw i32 %51, 1
  store i32 %52, i32* %6, align 4
  br label %41

53:                                               ; preds = %41
  %54 = load i32, i32* %4, align 4
  %55 = load i32, i32* %5, align 4
  %56 = add nsw i32 %55, %54
  store i32 %56, i32* %5, align 4
  %57 = load i32, i32* %5, align 4
  %58 = call dereferenceable(272) %"class.std::basic_ostream"* @_ZNSolsEi(%"class.std::basic_ostream"* @_ZSt4cout, i32 %57)
  br label %59

59:                                               ; preds = %53, %34
  ret i32 0
}

declare dso_local dereferenceable(280) %"class.std::basic_istream"* @_ZNSirsERi(%"class.std::basic_istream"*, i32* dereferenceable(4)) #1

declare dso_local dereferenceable(272) %"class.std::basic_ostream"* @_ZNSolsEi(%"class.std::basic_ostream"*, i32) #1

; Function Attrs: noinline uwtable
define internal void @_GLOBAL__sub_I_966.cpp() #0 section ".text.startup" {
  call void @__cxx_global_var_init()
  ret void
}


!llvm.module.flags = !{!0}
!llvm.ident = !{!1}

!0 = !{i32 1, !"wchar_size", i32 4}
!1 = !{!"clang version 10.0.0-4ubuntu1 "}
