; ModuleID = 'source-C-CXX/10/966.cpp'
source_filename = "source-C-CXX/10/966.cpp"
target datalayout = "e-m:e-p270:32:32-p271:32:32-p272:64:64-i64:64-f80:128-n8:16:32:64-S128"
target triple = "x86_64-pc-linux-gnu"

%"class.std::ios_base::Init" = type { i8 }
%"class.std::basic_istream" = type { i32 (...)**, i64, %"class.std::basic_ios" }
%"class.std::basic_ios" = type { %"class.std::ios_base", %"class.std::basic_ostream"*, i8, i8, %"class.std::basic_streambuf"*, %"class.std::ctype"*, %"class.std::num_put"*, %"class.std::num_get"* }
%"class.std::ios_base" = type { i32 (...)**, i64, i64, i32, i32, i32, %"struct.std::ios_base::_Callback_list"*, %"struct.std::ios_base::_Words", [8 x %"struct.std::ios_base::_Words"], i32, %"struct.std::ios_base::_Words"*, %"class.std::locale" }
%"struct.std::ios_base::_Callback_list" = type { %"struct.std::ios_base::_Callback_list"*, void (i32, %"class.std::ios_base"*, i32)*, i32, i32 }
%"struct.std::ios_base::_Words" = type { i8*, i64 }
%"class.std::locale" = type { %"class.std::locale::_Impl"* }
%"class.std::locale::_Impl" = type { i32, %"class.std::locale::facet"**, i64, %"class.std::locale::facet"**, i8** }
%"class.std::locale::facet" = type <{ i32 (...)**, i32, [4 x i8] }>
%"class.std::basic_ostream" = type { i32 (...)**, %"class.std::basic_ios" }
%"class.std::basic_streambuf" = type { i32 (...)**, i8*, i8*, i8*, i8*, i8*, i8*, %"class.std::locale" }
%"class.std::ctype" = type <{ %"class.std::locale::facet.base", [4 x i8], %struct.__locale_struct*, i8, [7 x i8], i32*, i32*, i16*, i8, [256 x i8], [256 x i8], i8, [6 x i8] }>
%"class.std::locale::facet.base" = type <{ i32 (...)**, i32 }>
%struct.__locale_struct = type { [13 x %struct.__locale_data*], i16*, i32*, i32*, [13 x i8*] }
%struct.__locale_data = type opaque
%"class.std::num_put" = type { %"class.std::locale::facet.base", [4 x i8] }
%"class.std::num_get" = type { %"class.std::locale::facet.base", [4 x i8] }

@_ZStL8__ioinit = internal global %"class.std::ios_base::Init" zeroinitializer, align 1
@__dso_handle = external hidden global i8
@_ZSt3cin = external global %"class.std::basic_istream", align 8
@_ZSt4cout = external global %"class.std::basic_ostream", align 8
@llvm.global_ctors = appending global [1 x { i32, void ()*, i8* }] [{ i32, void ()*, i8* } { i32 65535, void ()* @_GLOBAL__sub_I_966.cpp, i8* null }]
@switch.table.main = private unnamed_addr constant [12 x i32] [i32 31, i32 29, i32 31, i32 31, i32 31, i32 31, i32 31, i32 31, i32 31, i32 31, i32 31, i32 31], align 4
@switch.table.main.1 = private unnamed_addr constant [12 x i32] [i32 31, i32 28, i32 31, i32 31, i32 31, i32 31, i32 31, i32 31, i32 31, i32 31, i32 31, i32 31], align 4

declare void @_ZNSt8ios_base4InitC1Ev(%"class.std::ios_base::Init"* nonnull align 1 dereferenceable(1)) unnamed_addr #0

; Function Attrs: nounwind
declare void @_ZNSt8ios_base4InitD1Ev(%"class.std::ios_base::Init"* nonnull align 1 dereferenceable(1)) unnamed_addr #1

; Function Attrs: nofree nounwind
declare i32 @__cxa_atexit(void (i8*)*, i8*, i8*) local_unnamed_addr #2

; Function Attrs: mustprogress nofree nosync nounwind sspstrong uwtable willreturn
define dso_local i32 @_Z4pingi(i32 %0) local_unnamed_addr #3 {
  %2 = add i32 %0, -1
  %3 = icmp ult i32 %2, 12
  br i1 %3, label %9, label %4

4:                                                ; preds = %9, %1
  %5 = and i32 %0, -3
  %6 = icmp eq i32 %5, 4
  %7 = icmp eq i32 %5, 9
  %8 = or i1 %7, %6
  tail call void @llvm.assume(i1 %8)
  br label %18

9:                                                ; preds = %1
  %10 = trunc i32 %2 to i16
  %11 = lshr i16 2775, %10
  %12 = and i16 %11, 1
  %13 = icmp eq i16 %12, 0
  br i1 %13, label %4, label %14

14:                                               ; preds = %9
  %15 = sext i32 %2 to i64
  %16 = getelementptr inbounds [12 x i32], [12 x i32]* @switch.table.main.1, i64 0, i64 %15
  %17 = load i32, i32* %16, align 4
  br label %18

18:                                               ; preds = %14, %4
  %19 = phi i32 [ 30, %4 ], [ %17, %14 ]
  ret i32 %19
}

; Function Attrs: mustprogress nofree nosync nounwind sspstrong uwtable willreturn
define dso_local i32 @_Z3runi(i32 %0) local_unnamed_addr #3 {
  %2 = add i32 %0, -1
  %3 = icmp ult i32 %2, 12
  br i1 %3, label %9, label %4

4:                                                ; preds = %9, %1
  %5 = and i32 %0, -3
  %6 = icmp eq i32 %5, 4
  %7 = icmp eq i32 %5, 9
  %8 = or i1 %7, %6
  tail call void @llvm.assume(i1 %8)
  br label %18

9:                                                ; preds = %1
  %10 = trunc i32 %2 to i16
  %11 = lshr i16 2775, %10
  %12 = and i16 %11, 1
  %13 = icmp eq i16 %12, 0
  br i1 %13, label %4, label %14

14:                                               ; preds = %9
  %15 = sext i32 %2 to i64
  %16 = getelementptr inbounds [12 x i32], [12 x i32]* @switch.table.main, i64 0, i64 %15
  %17 = load i32, i32* %16, align 4
  br label %18

18:                                               ; preds = %14, %4
  %19 = phi i32 [ 30, %4 ], [ %17, %14 ]
  ret i32 %19
}

; Function Attrs: mustprogress norecurse sspstrong uwtable
define dso_local i32 @main() local_unnamed_addr #4 {
  %1 = alloca i32, align 4
  %2 = alloca i32, align 4
  %3 = alloca i32, align 4
  %4 = bitcast i32* %1 to i8*
  call void @llvm.lifetime.start.p0i8(i64 4, i8* nonnull %4) #8
  %5 = bitcast i32* %2 to i8*
  call void @llvm.lifetime.start.p0i8(i64 4, i8* nonnull %5) #8
  %6 = bitcast i32* %3 to i8*
  call void @llvm.lifetime.start.p0i8(i64 4, i8* nonnull %6) #8
  %7 = call nonnull align 8 dereferenceable(16) %"class.std::basic_istream"* @_ZNSirsERi(%"class.std::basic_istream"* nonnull align 8 dereferenceable(16) @_ZSt3cin, i32* nonnull align 4 dereferenceable(4) %1)
  %8 = call nonnull align 8 dereferenceable(16) %"class.std::basic_istream"* @_ZNSirsERi(%"class.std::basic_istream"* nonnull align 8 dereferenceable(16) %7, i32* nonnull align 4 dereferenceable(4) %2)
  %9 = call nonnull align 8 dereferenceable(16) %"class.std::basic_istream"* @_ZNSirsERi(%"class.std::basic_istream"* nonnull align 8 dereferenceable(16) %8, i32* nonnull align 4 dereferenceable(4) %3)
  %10 = load i32, i32* %1, align 4, !tbaa !5
  %11 = srem i32 %10, 400
  %12 = icmp eq i32 %11, 0
  br i1 %12, label %22, label %13

13:                                               ; preds = %0
  %14 = and i32 %10, 3
  %15 = icmp ne i32 %14, 0
  %16 = srem i32 %10, 100
  %17 = icmp eq i32 %16, 0
  %18 = or i1 %15, %17
  br i1 %18, label %19, label %22

19:                                               ; preds = %13
  %20 = load i32, i32* %2, align 4, !tbaa !5
  %21 = icmp sgt i32 %20, 1
  br i1 %21, label %53, label %77

22:                                               ; preds = %13, %0
  %23 = load i32, i32* %2, align 4, !tbaa !5
  %24 = icmp sgt i32 %23, 1
  br i1 %24, label %25, label %49

25:                                               ; preds = %22, %44
  %26 = phi i32 [ %47, %44 ], [ 1, %22 ]
  %27 = phi i32 [ %46, %44 ], [ 0, %22 ]
  %28 = add nsw i32 %26, -1
  %29 = icmp ult i32 %28, 12
  br i1 %29, label %35, label %30

30:                                               ; preds = %35, %25
  %31 = and i32 %26, 2147483645
  %32 = icmp eq i32 %31, 4
  %33 = icmp eq i32 %31, 9
  %34 = or i1 %33, %32
  call void @llvm.assume(i1 %34) #8
  br label %44

35:                                               ; preds = %25
  %36 = trunc i32 %28 to i16
  %37 = lshr i16 2775, %36
  %38 = and i16 %37, 1
  %39 = icmp eq i16 %38, 0
  br i1 %39, label %30, label %40

40:                                               ; preds = %35
  %41 = sext i32 %28 to i64
  %42 = getelementptr inbounds [12 x i32], [12 x i32]* @switch.table.main, i64 0, i64 %41
  %43 = load i32, i32* %42, align 4
  br label %44

44:                                               ; preds = %40, %30
  %45 = phi i32 [ 30, %30 ], [ %43, %40 ]
  %46 = add nuw nsw i32 %45, %27
  %47 = add nuw nsw i32 %26, 1
  %48 = icmp eq i32 %47, %23
  br i1 %48, label %49, label %25, !llvm.loop !9

49:                                               ; preds = %44, %22
  %50 = phi i32 [ 0, %22 ], [ %46, %44 ]
  %51 = load i32, i32* %3, align 4, !tbaa !5
  %52 = add nsw i32 %51, %50
  br label %81

53:                                               ; preds = %19, %72
  %54 = phi i32 [ %75, %72 ], [ 1, %19 ]
  %55 = phi i32 [ %74, %72 ], [ 0, %19 ]
  %56 = add nsw i32 %54, -1
  %57 = icmp ult i32 %56, 12
  br i1 %57, label %63, label %58

58:                                               ; preds = %63, %53
  %59 = and i32 %54, 2147483645
  %60 = icmp eq i32 %59, 4
  %61 = icmp eq i32 %59, 9
  %62 = or i1 %61, %60
  call void @llvm.assume(i1 %62) #8
  br label %72

63:                                               ; preds = %53
  %64 = trunc i32 %56 to i16
  %65 = lshr i16 2775, %64
  %66 = and i16 %65, 1
  %67 = icmp eq i16 %66, 0
  br i1 %67, label %58, label %68

68:                                               ; preds = %63
  %69 = sext i32 %56 to i64
  %70 = getelementptr inbounds [12 x i32], [12 x i32]* @switch.table.main.1, i64 0, i64 %69
  %71 = load i32, i32* %70, align 4
  br label %72

72:                                               ; preds = %68, %58
  %73 = phi i32 [ 30, %58 ], [ %71, %68 ]
  %74 = add nuw nsw i32 %73, %55
  %75 = add nuw nsw i32 %54, 1
  %76 = icmp eq i32 %75, %20
  br i1 %76, label %77, label %53, !llvm.loop !11

77:                                               ; preds = %72, %19
  %78 = phi i32 [ 0, %19 ], [ %74, %72 ]
  %79 = load i32, i32* %3, align 4, !tbaa !5
  %80 = add nsw i32 %79, %78
  br label %81

81:                                               ; preds = %77, %49
  %82 = phi i32 [ %80, %77 ], [ %52, %49 ]
  %83 = call nonnull align 8 dereferenceable(8) %"class.std::basic_ostream"* @_ZNSolsEi(%"class.std::basic_ostream"* nonnull align 8 dereferenceable(8) @_ZSt4cout, i32 %82)
  call void @llvm.lifetime.end.p0i8(i64 4, i8* nonnull %6) #8
  call void @llvm.lifetime.end.p0i8(i64 4, i8* nonnull %5) #8
  call void @llvm.lifetime.end.p0i8(i64 4, i8* nonnull %4) #8
  ret i32 0
}

; Function Attrs: argmemonly mustprogress nofree nosync nounwind willreturn
declare void @llvm.lifetime.start.p0i8(i64 immarg, i8* nocapture) #5

declare nonnull align 8 dereferenceable(16) %"class.std::basic_istream"* @_ZNSirsERi(%"class.std::basic_istream"* nonnull align 8 dereferenceable(16), i32* nonnull align 4 dereferenceable(4)) local_unnamed_addr #0

declare nonnull align 8 dereferenceable(8) %"class.std::basic_ostream"* @_ZNSolsEi(%"class.std::basic_ostream"* nonnull align 8 dereferenceable(8), i32) local_unnamed_addr #0

; Function Attrs: argmemonly mustprogress nofree nosync nounwind willreturn
declare void @llvm.lifetime.end.p0i8(i64 immarg, i8* nocapture) #5

; Function Attrs: sspstrong uwtable
define internal void @_GLOBAL__sub_I_966.cpp() #6 section ".text.startup" {
  tail call void @_ZNSt8ios_base4InitC1Ev(%"class.std::ios_base::Init"* nonnull align 1 dereferenceable(1) @_ZStL8__ioinit)
  %1 = tail call i32 @__cxa_atexit(void (i8*)* bitcast (void (%"class.std::ios_base::Init"*)* @_ZNSt8ios_base4InitD1Ev to void (i8*)*), i8* getelementptr inbounds (%"class.std::ios_base::Init", %"class.std::ios_base::Init"* @_ZStL8__ioinit, i64 0, i32 0), i8* nonnull @__dso_handle) #8
  ret void
}

; Function Attrs: inaccessiblememonly nofree nosync nounwind willreturn
declare void @llvm.assume(i1 noundef) #7


!llvm.module.flags = !{!0, !1, !2, !3}
!llvm.ident = !{!4}

!0 = !{i32 1, !"wchar_size", i32 4}
!1 = !{i32 7, !"PIC Level", i32 2}
!2 = !{i32 7, !"PIE Level", i32 2}
!3 = !{i32 7, !"uwtable", i32 1}
!4 = !{!"clang version 13.0.0"}
!5 = !{!6, !6, i64 0}
!6 = !{!"int", !7, i64 0}
!7 = !{!"omnipotent char", !8, i64 0}
!8 = !{!"Simple C++ TBAA"}
!9 = distinct !{!9, !10}
!10 = !{!"llvm.loop.mustprogress"}
!11 = distinct !{!11, !10}
